target datalayout = "e-m:e-p270:32:32-p271:32:32-p272:64:64-i64:64-i128:128-f80:128-n8:16:32:64-S128"
target triple = "x86_64-pc-linux-gnu"

%struct.preference = type { ptr, ptr, ptr, i32, i32, i32, %union.anon, %union.anon.0, %union.anon.1, %union.anon.2, %struct.pref_custom_cbs, ptr, ptr }
%union.anon = type { ptr }
%union.anon.0 = type { ptr }
%union.anon.1 = type { ptr }
%union.anon.2 = type { %struct.anon }
%struct.anon = type { ptr, i8 }
%struct.pref_custom_cbs = type { ptr, ptr, ptr, ptr, ptr, ptr, ptr }

; Function Attrs: nounwind null_pointer_is_valid sspstrong uwtable
define hidden zeroext i1 @prefs_get_preference_obsolete(ptr noundef %0) #0 {
  %2 = alloca i1, align 1
  %3 = alloca ptr, align 8
  store ptr %0, ptr %3, align 8
  %4 = load ptr, ptr %3, align 8
  %5 = icmp ne ptr %4, null
  br i1 %5, label %6, label %14

6:                                                ; preds = %1
  %7 = load ptr, ptr %3, align 8
  %8 = getelementptr inbounds nuw %struct.preference, ptr %7, i32 0, i32 4
  %9 = load i32, ptr %8, align 4
  %10 = and i32 %9, 1024
  %11 = icmp ne i32 %10, 0
  %12 = select i1 %11, i32 1, i32 0
  %13 = icmp ne i32 %12, 0
  store i1 %13, ptr %2, align 1
  br label %15

14:                                               ; preds = %1
  store i1 true, ptr %2, align 1
  br label %15

15:                                               ; preds = %14, %6
  %16 = load i1, ptr %2, align 1
  ret i1 %16
}