; Function Attrs: mustprogress nofree norecurse nosync nounwind null_pointer_is_valid sspstrong willreturn memory(argmem: read) uwtable
define hidden zeroext i1 @prefs_get_preference_obsolete(ptr noundef readonly captures(address_is_null) %0) local_unnamed_addr #0 {
  %.not = icmp eq ptr %0, null
  br i1 %.not, label %7, label %2

2:                                                ; preds = %1
  %3 = getelementptr inbounds nuw i8, ptr %0, i64 28
  %4 = load i32, ptr %3, align 4
  %5 = and i32 %4, 1024
  %6 = icmp ne i32 %5, 0
  br label %7

7:                                                ; preds = %1, %2
  %.0 = phi i1 [ %6, %2 ], [ true, %1 ]
  ret i1 %.0
}